; Function Attrs: mustprogress uwtable
define dso_local i8 @_ZN4Luau7CodeGen3A6413IrLoweringA645regOpENS0_4IrOpE(ptr noundef nonnull align 8 dereferenceable(1497) %0, i32 %1) local_unnamed_addr #0 align 2 {
  %3 = getelementptr inbounds nuw i8, ptr %0, i64 16
  %4 = load ptr, ptr %3, align 8, !tbaa !64
  %5 = getelementptr inbounds nuw i8, ptr %4, i64 24
  %6 = lshr i32 %1, 4
  %7 = zext nneg i32 %6 to i64
  %8 = load ptr, ptr %5, align 8, !tbaa !163
  %9 = getelementptr inbounds nuw %"struct.Luau::CodeGen::IrInst", ptr %8, i64 %7
  %10 = getelementptr inbounds nuw i8, ptr %9, i64 41
  %11 = load i8, ptr %10, align 1, !tbaa !164, !range !97, !noundef !98
  %12 = trunc nuw i8 %11 to i1
  br i1 %12, label %17, label %13

13:                                               ; preds = %2
  %14 = getelementptr inbounds nuw i8, ptr %9, i64 42
  %15 = load i8, ptr %14, align 2, !tbaa !165, !range !97, !noundef !98
  %16 = trunc nuw i8 %15 to i1
  br i1 %16, label %17, label %20

17:                                               ; preds = %13, %2
  %18 = getelementptr inbounds nuw i8, ptr %0, i64 32
  %19 = load ptr, ptr %0, align 8, !tbaa !63
  tail call void @_ZN4Luau7CodeGen3A6413IrRegAllocA6410restoreRegERNS1_18AssemblyBuilderA64ERNS0_6IrInstE(ptr noundef nonnull align 8 dereferenceable(325) %18, ptr noundef nonnull align 8 dereferenceable(176) %19, ptr noundef nonnull align 4 dereferenceable(43) %9)
  br label %20

20:                                               ; preds = %17, %13
  %21 = getelementptr inbounds nuw i8, ptr %9, i64 39
  %.sroa.06.0.copyload = load i8, ptr %21, align 1, !tbaa !43
  ret i8 %.sroa.06.0.copyload
}